(lp0
S'1-181-259-1'
p1
aS'1-181-259-2'
p2
aS'1-181-263-1'
p3
aS'1-181-263-2'
p4
aS'1-181-264-1'
p5
aS'1-181-264-2'
p6
aS'1-181-265-1'
p7
aS'1-181-265-2'
p8
aS'1-181-279-1'
p9
aS'1-181-279-2'
p10
aS'1-181-284-1'
p11
aS'1-181-284-2'
p12
aS'1-181-287-1'
p13
aS'1-181-287-2'
p14
aS'1-181-291-1'
p15
aS'1-181-291-2'
p16
aS'1-181-296-1'
p17
aS'1-181-296-2'
p18
aS'1-181-297-1'
p19
aS'1-181-297-2'
p20
aS'1-181-298-1'
p21
aS'1-181-298-2'
p22
aS'1-181-430-1'
p23
aS'1-181-430-2'
p24
aS'1-181-431-1'
p25
aS'1-181-431-2'
p26
aS'1-181-432-1'
p27
aS'1-181-432-2'
p28
aS'1-181-433-1'
p29
aS'1-181-433-2'
p30
aS'1-181-434-1'
p31
aS'1-181-434-2'
p32
aS'1-181-435-1'
p33
aS'1-181-435-2'
p34
aS'1-181-566-1'
p35
aS'1-181-566-2'
p36
aS'1-181-567-1'
p37
aS'1-181-567-2'
p38
aS'1-181-568-1'
p39
aS'1-181-568-2'
p40
aS'1-181-317-1'
p41
aS'1-181-317-2'
p42
aS'1-181-320-1'
p43
aS'1-181-320-2'
p44
aS'1-181-324-1'
p45
aS'1-181-324-2'
p46
aS'1-181-312-1'
p47
aS'1-181-312-2'
p48
aS'1-181-231-1'
p49
aS'1-181-231-2'
p50
aS'1-181-232-1'
p51
aS'1-181-232-2'
p52
aS'1-181-233-1'
p53
aS'1-181-233-2'
p54
aS'1-181-247-1'
p55
aS'1-181-247-2'
p56
aS'1-181-252-1'
p57
aS'1-181-252-2'
p58
aS'1-181-255-1'
p59
aS'1-181-255-2'
p60
aS'1-182-259-1'
p61
aS'1-182-259-2'
p62
aS'1-182-263-1'
p63
aS'1-182-263-2'
p64
aS'1-182-264-1'
p65
aS'1-182-264-2'
p66
aS'1-182-265-1'
p67
aS'1-182-265-2'
p68
aS'1-182-279-1'
p69
aS'1-182-279-2'
p70
aS'1-182-284-1'
p71
aS'1-182-284-2'
p72
aS'1-182-287-1'
p73
aS'1-182-287-2'
p74
aS'1-182-291-1'
p75
aS'1-182-291-2'
p76
aS'1-182-296-1'
p77
aS'1-182-296-2'
p78
aS'1-182-297-1'
p79
aS'1-182-297-2'
p80
aS'1-182-298-1'
p81
aS'1-182-298-2'
p82
aS'1-182-430-1'
p83
aS'1-182-430-2'
p84
aS'1-182-431-1'
p85
aS'1-182-431-2'
p86
aS'1-182-432-1'
p87
aS'1-182-432-2'
p88
aS'1-182-433-1'
p89
aS'1-182-433-2'
p90
aS'1-182-434-1'
p91
aS'1-182-434-2'
p92
aS'1-182-435-1'
p93
aS'1-182-435-2'
p94
aS'1-182-566-1'
p95
aS'1-182-566-2'
p96
aS'1-182-567-1'
p97
aS'1-182-567-2'
p98
aS'1-182-568-1'
p99
aS'1-182-568-2'
p100
aS'1-182-317-1'
p101
aS'1-182-317-2'
p102
aS'1-182-320-1'
p103
aS'1-182-320-2'
p104
aS'1-182-324-1'
p105
aS'1-182-324-2'
p106
aS'1-182-312-1'
p107
aS'1-182-312-2'
p108
aS'1-182-231-1'
p109
aS'1-182-231-2'
p110
aS'1-182-232-1'
p111
aS'1-182-232-2'
p112
aS'1-182-233-1'
p113
aS'1-182-233-2'
p114
aS'1-182-247-1'
p115
aS'1-182-247-2'
p116
aS'1-182-252-1'
p117
aS'1-182-252-2'
p118
aS'1-182-255-1'
p119
aS'1-182-255-2'
p120
aS'1-183-259-1'
p121
aS'1-183-259-2'
p122
aS'1-183-263-1'
p123
aS'1-183-263-2'
p124
aS'1-183-264-1'
p125
aS'1-183-264-2'
p126
aS'1-183-265-1'
p127
aS'1-183-265-2'
p128
aS'1-183-279-1'
p129
aS'1-183-279-2'
p130
aS'1-183-284-1'
p131
aS'1-183-284-2'
p132
aS'1-183-287-1'
p133
aS'1-183-287-2'
p134
aS'1-183-291-1'
p135
aS'1-183-291-2'
p136
aS'1-183-296-1'
p137
aS'1-183-296-2'
p138
aS'1-183-297-1'
p139
aS'1-183-297-2'
p140
aS'1-183-298-1'
p141
aS'1-183-298-2'
p142
aS'1-183-430-1'
p143
aS'1-183-430-2'
p144
aS'1-183-431-1'
p145
aS'1-183-431-2'
p146
aS'1-183-432-1'
p147
aS'1-183-432-2'
p148
aS'1-183-433-1'
p149
aS'1-183-433-2'
p150
aS'1-183-434-1'
p151
aS'1-183-434-2'
p152
aS'1-183-435-1'
p153
aS'1-183-435-2'
p154
aS'1-183-566-1'
p155
aS'1-183-566-2'
p156
aS'1-183-567-1'
p157
aS'1-183-567-2'
p158
aS'1-183-568-1'
p159
aS'1-183-568-2'
p160
aS'1-183-317-1'
p161
aS'1-183-317-2'
p162
aS'1-183-320-1'
p163
aS'1-183-320-2'
p164
aS'1-183-324-1'
p165
aS'1-183-324-2'
p166
aS'1-183-312-1'
p167
aS'1-183-312-2'
p168
aS'1-183-231-1'
p169
aS'1-183-231-2'
p170
aS'1-183-232-1'
p171
aS'1-183-232-2'
p172
aS'1-183-233-1'
p173
aS'1-183-233-2'
p174
aS'1-183-247-1'
p175
aS'1-183-247-2'
p176
aS'1-183-252-1'
p177
aS'1-183-252-2'
p178
aS'1-183-255-1'
p179
aS'1-183-255-2'
p180
aS'1-184-259-1'
p181
aS'1-184-259-2'
p182
aS'1-184-263-1'
p183
aS'1-184-263-2'
p184
aS'1-184-264-1'
p185
aS'1-184-264-2'
p186
aS'1-184-265-1'
p187
aS'1-184-265-2'
p188
aS'1-184-279-1'
p189
aS'1-184-279-2'
p190
aS'1-184-284-1'
p191
aS'1-184-284-2'
p192
aS'1-184-287-1'
p193
aS'1-184-287-2'
p194
aS'1-184-291-1'
p195
aS'1-184-291-2'
p196
aS'1-184-296-1'
p197
aS'1-184-296-2'
p198
aS'1-184-297-1'
p199
aS'1-184-297-2'
p200
aS'1-184-298-1'
p201
aS'1-184-298-2'
p202
aS'1-184-430-1'
p203
aS'1-184-430-2'
p204
aS'1-184-431-1'
p205
aS'1-184-431-2'
p206
aS'1-184-432-1'
p207
aS'1-184-432-2'
p208
aS'1-184-433-1'
p209
aS'1-184-433-2'
p210
aS'1-184-434-1'
p211
aS'1-184-434-2'
p212
aS'1-184-435-1'
p213
aS'1-184-435-2'
p214
aS'1-184-566-1'
p215
aS'1-184-566-2'
p216
aS'1-184-567-1'
p217
aS'1-184-567-2'
p218
aS'1-184-568-1'
p219
aS'1-184-568-2'
p220
aS'1-184-317-1'
p221
aS'1-184-317-2'
p222
aS'1-184-320-1'
p223
aS'1-184-320-2'
p224
aS'1-184-324-1'
p225
aS'1-184-324-2'
p226
aS'1-184-312-1'
p227
aS'1-184-312-2'
p228
aS'1-184-231-1'
p229
aS'1-184-231-2'
p230
aS'1-184-232-1'
p231
aS'1-184-232-2'
p232
aS'1-184-233-1'
p233
aS'1-184-233-2'
p234
aS'1-184-247-1'
p235
aS'1-184-247-2'
p236
aS'1-184-252-1'
p237
aS'1-184-252-2'
p238
aS'1-184-255-1'
p239
aS'1-184-255-2'
p240
aS'1-185-259-1'
p241
aS'1-185-259-2'
p242
aS'1-185-263-1'
p243
aS'1-185-263-2'
p244
aS'1-185-264-1'
p245
aS'1-185-264-2'
p246
aS'1-185-265-1'
p247
aS'1-185-265-2'
p248
aS'1-185-279-1'
p249
aS'1-185-279-2'
p250
aS'1-185-284-1'
p251
aS'1-185-284-2'
p252
aS'1-185-287-1'
p253
aS'1-185-287-2'
p254
aS'1-185-291-1'
p255
aS'1-185-291-2'
p256
aS'1-185-296-1'
p257
aS'1-185-296-2'
p258
aS'1-185-297-1'
p259
aS'1-185-297-2'
p260
aS'1-185-298-1'
p261
aS'1-185-298-2'
p262
aS'1-185-430-1'
p263
aS'1-185-430-2'
p264
aS'1-185-431-1'
p265
aS'1-185-431-2'
p266
aS'1-185-432-1'
p267
aS'1-185-432-2'
p268
aS'1-185-433-1'
p269
aS'1-185-433-2'
p270
aS'1-185-434-1'
p271
aS'1-185-434-2'
p272
aS'1-185-435-1'
p273
a.